; Function Attrs: mustprogress nofree norecurse nosync nounwind willreturn memory(read, inaccessiblemem: none) uwtable
define noundef i32 @_ZNK10open_spiel8efg_game8EFGState9ActionIdxEl(ptr noundef nonnull readonly align 8 captures(none) dereferenceable(72) %0, i64 noundef %1) local_unnamed_addr #6 align 2 {
  %3 = getelementptr inbounds nuw i8, ptr %0, i64 64
  %4 = load ptr, ptr %3, align 8
  %5 = getelementptr inbounds nuw i8, ptr %4, i64 152
  %6 = getelementptr inbounds nuw i8, ptr %4, i64 160
  %7 = load ptr, ptr %6, align 8
  %8 = load ptr, ptr %5, align 8
  %.not = icmp eq ptr %7, %8
  br i1 %.not, label %._crit_edge, label %.lr.ph.preheader

.lr.ph.preheader:                                 ; preds = %2
  %9 = ptrtoint ptr %7 to i64
  %10 = ptrtoint ptr %8 to i64
  %11 = sub i64 %9, %10
  %12 = ashr exact i64 %11, 3
  %umax = tail call i64 @llvm.umax.i64(i64 %12, i64 1)
  br label %.lr.ph

.lr.ph:                                           ; preds = %.lr.ph.preheader, %16
  %indvars.iv = phi i64 [ 0, %.lr.ph.preheader ], [ %indvars.iv.next, %16 ]
  %13 = getelementptr inbounds nuw i64, ptr %8, i64 %indvars.iv
  %14 = load i64, ptr %13, align 8
  %15 = icmp eq i64 %1, %14
  br i1 %15, label %._crit_edge.loopexit.split.loop.exit, label %16

16:                                               ; preds = %.lr.ph
  %indvars.iv.next = add nuw i64 %indvars.iv, 1
  %exitcond.not = icmp eq i64 %indvars.iv.next, %umax
  br i1 %exitcond.not, label %._crit_edge, label %.lr.ph, !llvm.loop !4

._crit_edge.loopexit.split.loop.exit:             ; preds = %.lr.ph
  %17 = trunc nuw nsw i64 %indvars.iv to i32
  br label %._crit_edge

._crit_edge:                                      ; preds = %16, %._crit_edge.loopexit.split.loop.exit, %2
  %.06 = phi i32 [ -1, %2 ], [ %17, %._crit_edge.loopexit.split.loop.exit ], [ -1, %16 ]
  ret i32 %.06
}